target datalayout = "e-m:e-p270:32:32-p271:32:32-p272:64:64-i64:64-f80:128-n8:16:32:64-S128"
target triple = "x86_64-pc-linux-gnu"

@.str = private unnamed_addr constant [5 x i8] c"%d%s\00", align 1
@.str.1 = private unnamed_addr constant [3 x i8] c"NO\00", align 1
@.str.2 = private unnamed_addr constant [3 x i8] c"%d\00", align 1
@.str.3 = private unnamed_addr constant [4 x i8] c"\0A%s\00", align 1

; Function Attrs: noinline nounwind uwtable
define dso_local i32 @main() #0 {
  %1 = alloca i32, align 4
  %2 = alloca i32, align 4
  %3 = alloca i32, align 4
  %4 = alloca i32, align 4
  %5 = alloca i32, align 4
  %6 = alloca [501 x i8], align 16
  %7 = alloca i8*, align 8
  %8 = alloca i8*, align 8
  %9 = alloca [510 x [5 x i8]], align 16
  %10 = alloca [510 x i32], align 16
  %11 = alloca i32, align 4
  store i32 0, i32* %1, align 4
  %12 = getelementptr inbounds [501 x i8], [501 x i8]* %6, i64 0, i64 0
  %13 = call i32 (i8*, ...) @__isoc99_scanf(i8* getelementptr inbounds ([5 x i8], [5 x i8]* @.str, i64 0, i64 0), i32* %2, i8* %12)
  %14 = getelementptr inbounds [501 x i8], [501 x i8]* %6, i64 0, i64 0
  store i8* %14, i8** %8, align 8
  store i8* %14, i8** %7, align 8
  %15 = getelementptr inbounds [501 x i8], [501 x i8]* %6, i64 0, i64 0
  %16 = call i64 @strlen(i8* %15) #3
  %17 = trunc i64 %16 to i32
  store i32 %17, i32* %5, align 4
  store i32 0, i32* %3, align 4
  br label %18

18:                                               ; preds = %48, %0
  %19 = load i32, i32* %3, align 4
  %20 = load i32, i32* %5, align 4
  %21 = load i32, i32* %2, align 4
  %22 = sub nsw i32 %20, %21
  %23 = add nsw i32 %22, 1
  %24 = icmp slt i32 %19, %23
  br i1 %24, label %25, label %51

25:                                               ; preds = %18
  %26 = load i8*, i8** %7, align 8
  store i8* %26, i8** %8, align 8
  store i32 0, i32* %4, align 4
  br label %27

27:                                               ; preds = %42, %25
  %28 = load i32, i32* %4, align 4
  %29 = load i32, i32* %2, align 4
  %30 = icmp slt i32 %28, %29
  br i1 %30, label %31, label %45

31:                                               ; preds = %27
  %32 = load i8*, i8** %8, align 8
  %33 = load i8, i8* %32, align 1
  %34 = load i32, i32* %3, align 4
  %35 = sext i32 %34 to i64
  %36 = getelementptr inbounds [510 x [5 x i8]], [510 x [5 x i8]]* %9, i64 0, i64 %35
  %37 = load i32, i32* %4, align 4
  %38 = sext i32 %37 to i64
  %39 = getelementptr inbounds [5 x i8], [5 x i8]* %36, i64 0, i64 %38
  store i8 %33, i8* %39, align 1
  %40 = load i8*, i8** %8, align 8
  %41 = getelementptr inbounds i8, i8* %40, i32 1
  store i8* %41, i8** %8, align 8
  br label %42

42:                                               ; preds = %31
  %43 = load i32, i32* %4, align 4
  %44 = add nsw i32 %43, 1
  store i32 %44, i32* %4, align 4
  br label %27

45:                                               ; preds = %27
  %46 = load i8*, i8** %7, align 8
  %47 = getelementptr inbounds i8, i8* %46, i32 1
  store i8* %47, i8** %7, align 8
  br label %48

48:                                               ; preds = %45
  %49 = load i32, i32* %3, align 4
  %50 = add nsw i32 %49, 1
  store i32 %50, i32* %3, align 4
  br label %18

51:                                               ; preds = %18
  store i32 0, i32* %3, align 4
  br label %52

52:                                               ; preds = %69, %51
  %53 = load i32, i32* %3, align 4
  %54 = load i32, i32* %5, align 4
  %55 = load i32, i32* %2, align 4
  %56 = sub nsw i32 %54, %55
  %57 = add nsw i32 %56, 1
  %58 = icmp slt i32 %53, %57
  br i1 %58, label %59, label %72

59:                                               ; preds = %52
  %60 = load i32, i32* %3, align 4
  %61 = sext i32 %60 to i64
  %62 = getelementptr inbounds [510 x i32], [510 x i32]* %10, i64 0, i64 %61
  store i32 1, i32* %62, align 4
  %63 = load i32, i32* %3, align 4
  %64 = sext i32 %63 to i64
  %65 = getelementptr inbounds [510 x [5 x i8]], [510 x [5 x i8]]* %9, i64 0, i64 %64
  %66 = load i32, i32* %2, align 4
  %67 = sext i32 %66 to i64
  %68 = getelementptr inbounds [5 x i8], [5 x i8]* %65, i64 0, i64 %67
  store i8 0, i8* %68, align 1
  br label %69

69:                                               ; preds = %59
  %70 = load i32, i32* %3, align 4
  %71 = add nsw i32 %70, 1
  store i32 %71, i32* %3, align 4
  br label %52

72:                                               ; preds = %52
  store i32 0, i32* %3, align 4
  br label %73

73:                                               ; preds = %111, %72
  %74 = load i32, i32* %3, align 4
  %75 = load i32, i32* %5, align 4
  %76 = load i32, i32* %2, align 4
  %77 = sub nsw i32 %75, %76
  %78 = icmp slt i32 %74, %77
  br i1 %78, label %79, label %114

79:                                               ; preds = %73
  %80 = load i32, i32* %3, align 4
  %81 = add nsw i32 %80, 1
  store i32 %81, i32* %4, align 4
  br label %82

82:                                               ; preds = %107, %79
  %83 = load i32, i32* %4, align 4
  %84 = load i32, i32* %5, align 4
  %85 = load i32, i32* %2, align 4
  %86 = sub nsw i32 %84, %85
  %87 = add nsw i32 %86, 1
  %88 = icmp slt i32 %83, %87
  br i1 %88, label %89, label %110

89:                                               ; preds = %82
  %90 = load i32, i32* %3, align 4
  %91 = sext i32 %90 to i64
  %92 = getelementptr inbounds [510 x [5 x i8]], [510 x [5 x i8]]* %9, i64 0, i64 %91
  %93 = getelementptr inbounds [5 x i8], [5 x i8]* %92, i64 0, i64 0
  %94 = load i32, i32* %4, align 4
  %95 = sext i32 %94 to i64
  %96 = getelementptr inbounds [510 x [5 x i8]], [510 x [5 x i8]]* %9, i64 0, i64 %95
  %97 = getelementptr inbounds [5 x i8], [5 x i8]* %96, i64 0, i64 0
  %98 = call i32 @strcmp(i8* %93, i8* %97) #3
  %99 = icmp eq i32 %98, 0
  br i1 %99, label %100, label %106

100:                                              ; preds = %89
  %101 = load i32, i32* %3, align 4
  %102 = sext i32 %101 to i64
  %103 = getelementptr inbounds [510 x i32], [510 x i32]* %10, i64 0, i64 %102
  %104 = load i32, i32* %103, align 4
  %105 = add nsw i32 %104, 1
  store i32 %105, i32* %103, align 4
  br label %106

106:                                              ; preds = %100, %89
  br label %107

107:                                              ; preds = %106
  %108 = load i32, i32* %4, align 4
  %109 = add nsw i32 %108, 1
  store i32 %109, i32* %4, align 4
  br label %82

110:                                              ; preds = %82
  br label %111

111:                                              ; preds = %110
  %112 = load i32, i32* %3, align 4
  %113 = add nsw i32 %112, 1
  store i32 %113, i32* %3, align 4
  br label %73

114:                                              ; preds = %73
  %115 = getelementptr inbounds [510 x i32], [510 x i32]* %10, i64 0, i64 0
  %116 = load i32, i32* %115, align 16
  store i32 %116, i32* %11, align 4
  store i32 1, i32* %3, align 4
  br label %117

117:                                              ; preds = %137, %114
  %118 = load i32, i32* %3, align 4
  %119 = load i32, i32* %5, align 4
  %120 = load i32, i32* %2, align 4
  %121 = sub nsw i32 %119, %120
  %122 = add nsw i32 %121, 1
  %123 = icmp slt i32 %118, %122
  br i1 %123, label %124, label %140

124:                                              ; preds = %117
  %125 = load i32, i32* %11, align 4
  %126 = load i32, i32* %3, align 4
  %127 = sext i32 %126 to i64
  %128 = getelementptr inbounds [510 x i32], [510 x i32]* %10, i64 0, i64 %127
  %129 = load i32, i32* %128, align 4
  %130 = icmp slt i32 %125, %129
  br i1 %130, label %131, label %136

131:                                              ; preds = %124
  %132 = load i32, i32* %3, align 4
  %133 = sext i32 %132 to i64
  %134 = getelementptr inbounds [510 x i32], [510 x i32]* %10, i64 0, i64 %133
  %135 = load i32, i32* %134, align 4
  store i32 %135, i32* %11, align 4
  br label %136

136:                                              ; preds = %131, %124
  br label %137

137:                                              ; preds = %136
  %138 = load i32, i32* %3, align 4
  %139 = add nsw i32 %138, 1
  store i32 %139, i32* %3, align 4
  br label %117

140:                                              ; preds = %117
  %141 = load i32, i32* %11, align 4
  %142 = icmp sle i32 %141, 1
  br i1 %142, label %143, label %145

143:                                              ; preds = %140
  %144 = call i32 (i8*, ...) @printf(i8* getelementptr inbounds ([3 x i8], [3 x i8]* @.str.1, i64 0, i64 0))
  br label %173

145:                                              ; preds = %140
  %146 = load i32, i32* %11, align 4
  %147 = call i32 (i8*, ...) @printf(i8* getelementptr inbounds ([3 x i8], [3 x i8]* @.str.2, i64 0, i64 0), i32 %146)
  store i32 0, i32* %3, align 4
  br label %148

148:                                              ; preds = %169, %145
  %149 = load i32, i32* %3, align 4
  %150 = load i32, i32* %5, align 4
  %151 = load i32, i32* %2, align 4
  %152 = sub nsw i32 %150, %151
  %153 = add nsw i32 %152, 1
  %154 = icmp slt i32 %149, %153
  br i1 %154, label %155, label %172

155:                                              ; preds = %148
  %156 = load i32, i32* %3, align 4
  %157 = sext i32 %156 to i64
  %158 = getelementptr inbounds [510 x i32], [510 x i32]* %10, i64 0, i64 %157
  %159 = load i32, i32* %158, align 4
  %160 = load i32, i32* %11, align 4
  %161 = icmp eq i32 %159, %160
  br i1 %161, label %162, label %168

162:                                              ; preds = %155
  %163 = load i32, i32* %3, align 4
  %164 = sext i32 %163 to i64
  %165 = getelementptr inbounds [510 x [5 x i8]], [510 x [5 x i8]]* %9, i64 0, i64 %164
  %166 = getelementptr inbounds [5 x i8], [5 x i8]* %165, i64 0, i64 0
  %167 = call i32 (i8*, ...) @printf(i8* getelementptr inbounds ([4 x i8], [4 x i8]* @.str.3, i64 0, i64 0), i8* %166)
  br label %168

168:                                              ; preds = %162, %155
  br label %169

169:                                              ; preds = %168
  %170 = load i32, i32* %3, align 4
  %171 = add nsw i32 %170, 1
  store i32 %171, i32* %3, align 4
  br label %148

172:                                              ; preds = %148
  br label %173

173:                                              ; preds = %172, %143
  %174 = load i32, i32* %1, align 4
  ret i32 %174
}